target datalayout = "e-m:e-p270:32:32-p271:32:32-p272:64:64-i64:64-i128:128-f80:128-n8:16:32:64-S128"
target triple = "x86_64-pc-linux-gnu"

%struct.MPEG4AudioConfig = type { i32, i32, i32, i32, i32, i32, i32, i32, i32, i32, i32, i32 }
%struct.AVStream = type { ptr, i32, i32, ptr, ptr, %struct.AVRational, i64, i64, i64, i32, i32, %struct.AVRational, ptr, %struct.AVRational, %struct.AVPacket, i32, %struct.AVRational, i32 }
%struct.AVPacket = type { ptr, i64, i64, ptr, i32, i32, i32, ptr, i32, i64, i64, ptr, ptr, %struct.AVRational }
%struct.AVRational = type { i32, i32 }
%struct.AVCodecParameters = type { i32, i32, i32, ptr, i32, ptr, i32, i32, i64, i32, i32, i32, i32, i32, i32, %struct.AVRational, %struct.AVRational, i32, i32, i32, i32, i32, i32, i32, %struct.AVChannelLayout, i32, i32, i32, i32, i32, i32 }
%struct.AVChannelLayout = type { i32, i32, %union.anon, ptr }
%union.anon = type { i64 }

@.str.1 = private unnamed_addr constant [39 x i8] c"MPEG-4 description: tag=0x%02x len=%d\0A\00", align 1
@.str.2 = private unnamed_addr constant [28 x i8] c"esds object type id 0x%02x\0A\00", align 1
@.str.3 = private unnamed_addr constant [31 x i8] c"Specific MPEG-4 header len=%d\0A\00", align 1
@ff_mpa_freq_tab = external hidden constant [3 x i16], align 2
@.str.4 = private unnamed_addr constant [77 x i8] c"mp4a config channels %d obj %d ext obj %d sample rate %d ext sample rate %d\0A\00", align 1

; Function Attrs: nounwind uwtable
define i32 @ff_mp4_read_descr_len(ptr noundef %0) #0 {
  %2 = alloca ptr, align 8
  %3 = alloca i32, align 4
  %4 = alloca i32, align 4
  %5 = alloca i32, align 4
  %6 = alloca i32, align 4
  store ptr %0, ptr %2, align 8, !tbaa !16
  call void @llvm.lifetime.start.p0(i64 4, ptr %3) #6
  store i32 0, ptr %3, align 4, !tbaa !9
  call void @llvm.lifetime.start.p0(i64 4, ptr %4) #6
  store i32 4, ptr %4, align 4, !tbaa !9
  br label %7

7:                                                ; preds = %26, %1
  %8 = load i32, ptr %4, align 4, !tbaa !9
  %9 = add nsw i32 %8, -1
  store i32 %9, ptr %4, align 4, !tbaa !9
  %10 = icmp ne i32 %8, 0
  br i1 %10, label %11, label %27

11:                                               ; preds = %7
  call void @llvm.lifetime.start.p0(i64 4, ptr %5) #6
  %12 = load ptr, ptr %2, align 8, !tbaa !16
  %13 = call i32 @avio_r8(ptr noundef %12)
  store i32 %13, ptr %5, align 4, !tbaa !9
  %14 = load i32, ptr %3, align 4, !tbaa !9
  %15 = shl i32 %14, 7
  %16 = load i32, ptr %5, align 4, !tbaa !9
  %17 = and i32 %16, 127
  %18 = or i32 %15, %17
  store i32 %18, ptr %3, align 4, !tbaa !9
  %19 = load i32, ptr %5, align 4, !tbaa !9
  %20 = and i32 %19, 128
  %21 = icmp ne i32 %20, 0
  br i1 %21, label %23, label %22

22:                                               ; preds = %11
  store i32 3, ptr %6, align 4
  br label %24

23:                                               ; preds = %11
  store i32 0, ptr %6, align 4
  br label %24

24:                                               ; preds = %23, %22
  call void @llvm.lifetime.end.p0(i64 4, ptr %5) #6
  %25 = load i32, ptr %6, align 4
  switch i32 %25, label %29 [
    i32 0, label %26
    i32 3, label %27
  ]

26:                                               ; preds = %24
  br label %7, !llvm.loop !18

27:                                               ; preds = %24, %7
  %28 = load i32, ptr %3, align 4, !tbaa !9
  store i32 1, ptr %6, align 4
  call void @llvm.lifetime.end.p0(i64 4, ptr %4) #6
  call void @llvm.lifetime.end.p0(i64 4, ptr %3) #6
  ret i32 %28

29:                                               ; preds = %24
  unreachable
}

; Function Attrs: nounwind uwtable
define i32 @ff_mp4_read_descr(ptr noundef %0, ptr noundef %1, ptr noundef %2) #0 {
  %4 = alloca ptr, align 8
  %5 = alloca ptr, align 8
  %6 = alloca ptr, align 8
  %7 = alloca i32, align 4
  store ptr %0, ptr %4, align 8, !tbaa !19
  store ptr %1, ptr %5, align 8, !tbaa !16
  store ptr %2, ptr %6, align 8, !tbaa !20
  call void @llvm.lifetime.start.p0(i64 4, ptr %7) #6
  %8 = load ptr, ptr %5, align 8, !tbaa !16
  %9 = call i32 @avio_r8(ptr noundef %8)
  %10 = load ptr, ptr %6, align 8, !tbaa !20
  store i32 %9, ptr %10, align 4, !tbaa !9
  %11 = load ptr, ptr %5, align 8, !tbaa !16
  %12 = call i32 @ff_mp4_read_descr_len(ptr noundef %11)
  store i32 %12, ptr %7, align 4, !tbaa !9
  %13 = load ptr, ptr %4, align 8, !tbaa !19
  %14 = load ptr, ptr %6, align 8, !tbaa !20
  %15 = load i32, ptr %14, align 4, !tbaa !9
  %16 = load i32, ptr %7, align 4, !tbaa !9
  call void (ptr, i32, ptr, ...) @av_log(ptr noundef %13, i32 noundef 56, ptr noundef @.str.1, i32 noundef %15, i32 noundef %16)
  %17 = load i32, ptr %7, align 4, !tbaa !9
  call void @llvm.lifetime.end.p0(i64 4, ptr %7) #6
  ret i32 %17
}

; Function Attrs: nounwind uwtable
define i32 @ff_mp4_read_dec_config_descr(ptr noundef %0, ptr noundef %1, ptr noundef %2) #0 {
  %4 = alloca i32, align 4
  %5 = alloca ptr, align 8
  %6 = alloca ptr, align 8
  %7 = alloca ptr, align 8
  %8 = alloca i32, align 4
  %9 = alloca i32, align 4
  %10 = alloca i32, align 4
  %11 = alloca i32, align 4
  %12 = alloca i32, align 4
  %13 = alloca i32, align 4
  %14 = alloca %struct.MPEG4AudioConfig, align 4
  store ptr %0, ptr %5, align 8, !tbaa !19
  store ptr %1, ptr %6, align 8, !tbaa !22
  store ptr %2, ptr %7, align 8, !tbaa !16
  call void @llvm.lifetime.start.p0(i64 4, ptr %8) #6
  call void @llvm.lifetime.start.p0(i64 4, ptr %9) #6
  call void @llvm.lifetime.start.p0(i64 4, ptr %10) #6
  call void @llvm.lifetime.start.p0(i64 4, ptr %11) #6
  call void @llvm.lifetime.start.p0(i64 4, ptr %12) #6
  %15 = load ptr, ptr %7, align 8, !tbaa !16
  %16 = call i32 @avio_r8(ptr noundef %15)
  store i32 %16, ptr %12, align 4, !tbaa !9
  %17 = load ptr, ptr %7, align 8, !tbaa !16
  %18 = call i32 @avio_r8(ptr noundef %17)
  %19 = load ptr, ptr %7, align 8, !tbaa !16
  %20 = call i32 @avio_rb24(ptr noundef %19)
  %21 = load ptr, ptr %7, align 8, !tbaa !16
  %22 = call i32 @avio_rb32(ptr noundef %21)
  %23 = load ptr, ptr %7, align 8, !tbaa !16
  %24 = call i32 @avio_rb32(ptr noundef %23)
  %25 = zext i32 %24 to i64
  %26 = load ptr, ptr %6, align 8, !tbaa !22
  %27 = getelementptr inbounds nuw %struct.AVStream, ptr %26, i32 0, i32 3
  %28 = load ptr, ptr %27, align 8, !tbaa !24
  %29 = getelementptr inbounds nuw %struct.AVCodecParameters, ptr %28, i32 0, i32 8
  store i64 %25, ptr %29, align 8, !tbaa !34
  %30 = load i32, ptr %12, align 4, !tbaa !9
  %31 = call i32 @ff_codec_get_id(ptr noundef @ff_mp4_obj_type, i32 noundef %30)
  store i32 %31, ptr %8, align 4, !tbaa !9
  %32 = load i32, ptr %8, align 4, !tbaa !9
  %33 = icmp ne i32 %32, 0
  br i1 %33, label %34, label %40

34:                                               ; preds = %3
  %35 = load i32, ptr %8, align 4, !tbaa !9
  %36 = load ptr, ptr %6, align 8, !tbaa !22
  %37 = getelementptr inbounds nuw %struct.AVStream, ptr %36, i32 0, i32 3
  %38 = load ptr, ptr %37, align 8, !tbaa !24
  %39 = getelementptr inbounds nuw %struct.AVCodecParameters, ptr %38, i32 0, i32 1
  store i32 %35, ptr %39, align 4, !tbaa !37
  br label %40

40:                                               ; preds = %34, %3
  %41 = load ptr, ptr %5, align 8, !tbaa !19
  %42 = load i32, ptr %12, align 4, !tbaa !9
  call void (ptr, i32, ptr, ...) @av_log(ptr noundef %41, i32 noundef 56, ptr noundef @.str.2, i32 noundef %42)
  %43 = load ptr, ptr %5, align 8, !tbaa !19
  %44 = load ptr, ptr %7, align 8, !tbaa !16
  %45 = call i32 @ff_mp4_read_descr(ptr noundef %43, ptr noundef %44, ptr noundef %10)
  store i32 %45, ptr %9, align 4, !tbaa !9
  %46 = load i32, ptr %10, align 4, !tbaa !9
  %47 = icmp eq i32 %46, 5
  br i1 %47, label %48, label %195

48:                                               ; preds = %40
  %49 = load ptr, ptr %5, align 8, !tbaa !19
  %50 = load i32, ptr %9, align 4, !tbaa !9
  call void (ptr, i32, ptr, ...) @av_log(ptr noundef %49, i32 noundef 56, ptr noundef @.str.3, i32 noundef %50)
  %51 = load i32, ptr %12, align 4, !tbaa !9
  %52 = icmp eq i32 %51, 105
  br i1 %52, label %56, label %53

53:                                               ; preds = %48
  %54 = load i32, ptr %12, align 4, !tbaa !9
  %55 = icmp eq i32 %54, 107
  br i1 %55, label %56, label %57

56:                                               ; preds = %53, %48
  store i32 0, ptr %4, align 4
  store i32 1, ptr %13, align 4
  br label %196

57:                                               ; preds = %53
  %58 = load i32, ptr %9, align 4, !tbaa !9
  %59 = icmp ne i32 %58, 0
  br i1 %59, label %60, label %64

60:                                               ; preds = %57
  %61 = load i32, ptr %9, align 4, !tbaa !9
  %62 = sext i32 %61 to i64
  %63 = icmp ugt i64 %62, 1073741824
  br i1 %63, label %64, label %65

64:                                               ; preds = %60, %57
  store i32 -1094995529, ptr %4, align 4
  store i32 1, ptr %13, align 4
  br label %196

65:                                               ; preds = %60
  %66 = load ptr, ptr %5, align 8, !tbaa !19
  %67 = load ptr, ptr %6, align 8, !tbaa !22
  %68 = getelementptr inbounds nuw %struct.AVStream, ptr %67, i32 0, i32 3
  %69 = load ptr, ptr %68, align 8, !tbaa !24
  %70 = load ptr, ptr %7, align 8, !tbaa !16
  %71 = load i32, ptr %9, align 4, !tbaa !9
  %72 = call i32 @ff_get_extradata(ptr noundef %66, ptr noundef %69, ptr noundef %70, i32 noundef %71)
  store i32 %72, ptr %11, align 4, !tbaa !9
  %73 = icmp slt i32 %72, 0
  br i1 %73, label %74, label %76

74:                                               ; preds = %65
  %75 = load i32, ptr %11, align 4, !tbaa !9
  store i32 %75, ptr %4, align 4
  store i32 1, ptr %13, align 4
  br label %196

76:                                               ; preds = %65
  %77 = load ptr, ptr %6, align 8, !tbaa !22
  %78 = getelementptr inbounds nuw %struct.AVStream, ptr %77, i32 0, i32 3
  %79 = load ptr, ptr %78, align 8, !tbaa !24
  %80 = getelementptr inbounds nuw %struct.AVCodecParameters, ptr %79, i32 0, i32 1
  %81 = load i32, ptr %80, align 4, !tbaa !37
  %82 = icmp eq i32 %81, 86018
  br i1 %82, label %83, label %194

83:                                               ; preds = %76
  call void @llvm.lifetime.start.p0(i64 48, ptr %14) #6
  call void @llvm.memset.p0.i64(ptr align 4 %14, i8 0, i64 48, i1 false)
  %84 = load ptr, ptr %6, align 8, !tbaa !22
  %85 = getelementptr inbounds nuw %struct.AVStream, ptr %84, i32 0, i32 3
  %86 = load ptr, ptr %85, align 8, !tbaa !24
  %87 = getelementptr inbounds nuw %struct.AVCodecParameters, ptr %86, i32 0, i32 3
  %88 = load ptr, ptr %87, align 8, !tbaa !38
  %89 = load ptr, ptr %6, align 8, !tbaa !22
  %90 = getelementptr inbounds nuw %struct.AVStream, ptr %89, i32 0, i32 3
  %91 = load ptr, ptr %90, align 8, !tbaa !24
  %92 = getelementptr inbounds nuw %struct.AVCodecParameters, ptr %91, i32 0, i32 4
  %93 = load i32, ptr %92, align 8, !tbaa !39
  %94 = load ptr, ptr %5, align 8, !tbaa !19
  %95 = call i32 @avpriv_mpeg4audio_get_config2(ptr noundef %14, ptr noundef %88, i32 noundef %93, i32 noundef 1, ptr noundef %94)
  store i32 %95, ptr %11, align 4, !tbaa !9
  %96 = load i32, ptr %11, align 4, !tbaa !9
  %97 = icmp slt i32 %96, 0
  br i1 %97, label %98, label %100

98:                                               ; preds = %83
  %99 = load i32, ptr %11, align 4, !tbaa !9
  store i32 %99, ptr %4, align 4
  store i32 1, ptr %13, align 4
  br label %191

100:                                              ; preds = %83
  %101 = getelementptr inbounds nuw %struct.MPEG4AudioConfig, ptr %14, i32 0, i32 9
  %102 = load i32, ptr %101, align 4, !tbaa !40
  %103 = load ptr, ptr %6, align 8, !tbaa !22
  %104 = getelementptr inbounds nuw %struct.AVStream, ptr %103, i32 0, i32 3
  %105 = load ptr, ptr %104, align 8, !tbaa !24
  %106 = getelementptr inbounds nuw %struct.AVCodecParameters, ptr %105, i32 0, i32 24
  %107 = getelementptr inbounds nuw %struct.AVChannelLayout, ptr %106, i32 0, i32 1
  %108 = load i32, ptr %107, align 4, !tbaa !42
  %109 = icmp ne i32 %102, %108
  br i1 %109, label %110, label %127

110:                                              ; preds = %100
  %111 = load ptr, ptr %6, align 8, !tbaa !22
  %112 = getelementptr inbounds nuw %struct.AVStream, ptr %111, i32 0, i32 3
  %113 = load ptr, ptr %112, align 8, !tbaa !24
  %114 = getelementptr inbounds nuw %struct.AVCodecParameters, ptr %113, i32 0, i32 24
  call void @av_channel_layout_uninit(ptr noundef %114)
  %115 = load ptr, ptr %6, align 8, !tbaa !22
  %116 = getelementptr inbounds nuw %struct.AVStream, ptr %115, i32 0, i32 3
  %117 = load ptr, ptr %116, align 8, !tbaa !24
  %118 = getelementptr inbounds nuw %struct.AVCodecParameters, ptr %117, i32 0, i32 24
  %119 = getelementptr inbounds nuw %struct.AVChannelLayout, ptr %118, i32 0, i32 0
  store i32 0, ptr %119, align 8, !tbaa !43
  %120 = getelementptr inbounds nuw %struct.MPEG4AudioConfig, ptr %14, i32 0, i32 9
  %121 = load i32, ptr %120, align 4, !tbaa !40
  %122 = load ptr, ptr %6, align 8, !tbaa !22
  %123 = getelementptr inbounds nuw %struct.AVStream, ptr %122, i32 0, i32 3
  %124 = load ptr, ptr %123, align 8, !tbaa !24
  %125 = getelementptr inbounds nuw %struct.AVCodecParameters, ptr %124, i32 0, i32 24
  %126 = getelementptr inbounds nuw %struct.AVChannelLayout, ptr %125, i32 0, i32 1
  store i32 %121, ptr %126, align 4, !tbaa !42
  br label %127

127:                                              ; preds = %110, %100
  %128 = getelementptr inbounds nuw %struct.MPEG4AudioConfig, ptr %14, i32 0, i32 0
  %129 = load i32, ptr %128, align 4, !tbaa !44
  %130 = icmp eq i32 %129, 29
  br i1 %130, label %131, label %146

131:                                              ; preds = %127
  %132 = getelementptr inbounds nuw %struct.MPEG4AudioConfig, ptr %14, i32 0, i32 1
  %133 = load i32, ptr %132, align 4, !tbaa !45
  %134 = icmp slt i32 %133, 3
  br i1 %134, label %135, label %146

135:                                              ; preds = %131
  %136 = getelementptr inbounds nuw %struct.MPEG4AudioConfig, ptr %14, i32 0, i32 1
  %137 = load i32, ptr %136, align 4, !tbaa !45
  %138 = sext i32 %137 to i64
  %139 = getelementptr inbounds [3 x i16], ptr @ff_mpa_freq_tab, i64 0, i64 %138
  %140 = load i16, ptr %139, align 2, !tbaa !46
  %141 = zext i16 %140 to i32
  %142 = load ptr, ptr %6, align 8, !tbaa !22
  %143 = getelementptr inbounds nuw %struct.AVStream, ptr %142, i32 0, i32 3
  %144 = load ptr, ptr %143, align 8, !tbaa !24
  %145 = getelementptr inbounds nuw %struct.AVCodecParameters, ptr %144, i32 0, i32 25
  store i32 %141, ptr %145, align 8, !tbaa !48
  br label %165

146:                                              ; preds = %131, %127
  %147 = getelementptr inbounds nuw %struct.MPEG4AudioConfig, ptr %14, i32 0, i32 7
  %148 = load i32, ptr %147, align 4, !tbaa !49
  %149 = icmp ne i32 %148, 0
  br i1 %149, label %150, label %157

150:                                              ; preds = %146
  %151 = getelementptr inbounds nuw %struct.MPEG4AudioConfig, ptr %14, i32 0, i32 7
  %152 = load i32, ptr %151, align 4, !tbaa !49
  %153 = load ptr, ptr %6, align 8, !tbaa !22
  %154 = getelementptr inbounds nuw %struct.AVStream, ptr %153, i32 0, i32 3
  %155 = load ptr, ptr %154, align 8, !tbaa !24
  %156 = getelementptr inbounds nuw %struct.AVCodecParameters, ptr %155, i32 0, i32 25
  store i32 %152, ptr %156, align 8, !tbaa !48
  br label %164

157:                                              ; preds = %146
  %158 = getelementptr inbounds nuw %struct.MPEG4AudioConfig, ptr %14, i32 0, i32 2
  %159 = load i32, ptr %158, align 4, !tbaa !50
  %160 = load ptr, ptr %6, align 8, !tbaa !22
  %161 = getelementptr inbounds nuw %struct.AVStream, ptr %160, i32 0, i32 3
  %162 = load ptr, ptr %161, align 8, !tbaa !24
  %163 = getelementptr inbounds nuw %struct.AVCodecParameters, ptr %162, i32 0, i32 25
  store i32 %159, ptr %163, align 8, !tbaa !48
  br label %164

164:                                              ; preds = %157, %150
  br label %165

165:                                              ; preds = %164, %135
  %166 = load ptr, ptr %5, align 8, !tbaa !19
  %167 = getelementptr inbounds nuw %struct.MPEG4AudioConfig, ptr %14, i32 0, i32 9
  %168 = load i32, ptr %167, align 4, !tbaa !40
  %169 = getelementptr inbounds nuw %struct.MPEG4AudioConfig, ptr %14, i32 0, i32 0
  %170 = load i32, ptr %169, align 4, !tbaa !44
  %171 = getelementptr inbounds nuw %struct.MPEG4AudioConfig, ptr %14, i32 0, i32 5
  %172 = load i32, ptr %171, align 4, !tbaa !51
  %173 = getelementptr inbounds nuw %struct.MPEG4AudioConfig, ptr %14, i32 0, i32 2
  %174 = load i32, ptr %173, align 4, !tbaa !50
  %175 = getelementptr inbounds nuw %struct.MPEG4AudioConfig, ptr %14, i32 0, i32 7
  %176 = load i32, ptr %175, align 4, !tbaa !49
  call void (ptr, i32, ptr, ...) @av_log(ptr noundef %166, i32 noundef 56, ptr noundef @.str.4, i32 noundef %168, i32 noundef %170, i32 noundef %172, i32 noundef %174, i32 noundef %176)
  %177 = getelementptr inbounds nuw %struct.MPEG4AudioConfig, ptr %14, i32 0, i32 0
  %178 = load i32, ptr %177, align 4, !tbaa !44
  %179 = call i32 @ff_codec_get_id(ptr noundef @mp4_audio_types, i32 noundef %178)
  %180 = load ptr, ptr %6, align 8, !tbaa !22
  %181 = getelementptr inbounds nuw %struct.AVStream, ptr %180, i32 0, i32 3
  %182 = load ptr, ptr %181, align 8, !tbaa !24
  %183 = getelementptr inbounds nuw %struct.AVCodecParameters, ptr %182, i32 0, i32 1
  store i32 %179, ptr %183, align 4, !tbaa !37
  %184 = icmp ne i32 %179, 0
  br i1 %184, label %190, label %185

185:                                              ; preds = %165
  %186 = load ptr, ptr %6, align 8, !tbaa !22
  %187 = getelementptr inbounds nuw %struct.AVStream, ptr %186, i32 0, i32 3
  %188 = load ptr, ptr %187, align 8, !tbaa !24
  %189 = getelementptr inbounds nuw %struct.AVCodecParameters, ptr %188, i32 0, i32 1
  store i32 86018, ptr %189, align 4, !tbaa !37
  br label %190

190:                                              ; preds = %185, %165
  store i32 0, ptr %13, align 4
  br label %191

191:                                              ; preds = %190, %98
  call void @llvm.lifetime.end.p0(i64 48, ptr %14) #6
  %192 = load i32, ptr %13, align 4
  switch i32 %192, label %196 [
    i32 0, label %193
  ]

193:                                              ; preds = %191
  br label %194

194:                                              ; preds = %193, %76
  br label %195

195:                                              ; preds = %194, %40
  store i32 0, ptr %4, align 4
  store i32 1, ptr %13, align 4
  br label %196

196:                                              ; preds = %195, %191, %74, %64, %56
  call void @llvm.lifetime.end.p0(i64 4, ptr %12) #6
  call void @llvm.lifetime.end.p0(i64 4, ptr %11) #6
  call void @llvm.lifetime.end.p0(i64 4, ptr %10) #6
  call void @llvm.lifetime.end.p0(i64 4, ptr %9) #6
  call void @llvm.lifetime.end.p0(i64 4, ptr %8) #6
  %197 = load i32, ptr %4, align 4
  ret i32 %197
}