; Function Attrs: nounwind uwtable
define range(i32 -2147483648, 1) i32 @ff_mp4_read_dec_config_descr(ptr noundef %0, ptr noundef readonly captures(none) %1, ptr noundef %2) local_unnamed_addr #5 {
  %4 = alloca %struct.MPEG4AudioConfig, align 4
  %5 = tail call i32 @avio_r8(ptr noundef %2) #8
  %6 = tail call i32 @avio_r8(ptr noundef %2) #8
  %7 = tail call i32 @avio_rb24(ptr noundef %2) #8
  %8 = tail call i32 @avio_rb32(ptr noundef %2) #8
  %9 = tail call i32 @avio_rb32(ptr noundef %2) #8
  %10 = zext i32 %9 to i64
  %11 = getelementptr inbounds nuw i8, ptr %1, i64 16
  %12 = load ptr, ptr %11, align 8, !tbaa !13
  %13 = getelementptr inbounds nuw i8, ptr %12, i64 48
  store i64 %10, ptr %13, align 8, !tbaa !25
  %14 = tail call i32 @ff_codec_get_id(ptr noundef nonnull @ff_mp4_obj_type, i32 noundef %5) #8
  %.not = icmp eq i32 %14, 0
  br i1 %.not, label %18, label %15

15:                                               ; preds = %3
  %16 = load ptr, ptr %11, align 8, !tbaa !13
  %17 = getelementptr inbounds nuw i8, ptr %16, i64 4
  store i32 %14, ptr %17, align 4, !tbaa !28
  br label %18

18:                                               ; preds = %15, %3
  tail call void (ptr, i32, ptr, ...) @av_log(ptr noundef %0, i32 noundef 56, ptr noundef nonnull @.str.2, i32 noundef %5) #8
  %19 = tail call i32 @avio_r8(ptr noundef %2) #8
  br label %20

20:                                               ; preds = %21, %18
  %.07.i.i = phi i32 [ 4, %18 ], [ %22, %21 ]
  %.06.i.i = phi i32 [ 0, %18 ], [ %26, %21 ]
  %.not.i.i = icmp eq i32 %.07.i.i, 0
  br i1 %.not.i.i, label %ff_mp4_read_descr.exit, label %21

21:                                               ; preds = %20
  %22 = add nsw i32 %.07.i.i, -1
  %23 = tail call i32 @avio_r8(ptr noundef %2) #8
  %24 = shl i32 %.06.i.i, 7
  %25 = and i32 %23, 127
  %26 = or disjoint i32 %25, %24
  %27 = and i32 %23, 128
  %.not8.i.i = icmp eq i32 %27, 0
  br i1 %.not8.i.i, label %ff_mp4_read_descr.exit, label %20

ff_mp4_read_descr.exit:                           ; preds = %20, %21
  %.1.i.i = phi i32 [ %26, %21 ], [ %.06.i.i, %20 ]
  tail call void (ptr, i32, ptr, ...) @av_log(ptr noundef %0, i32 noundef 56, ptr noundef nonnull @.str.1, i32 noundef %19, i32 noundef %.1.i.i) #8
  %28 = icmp eq i32 %19, 5
  br i1 %28, label %29, label %94

29:                                               ; preds = %ff_mp4_read_descr.exit
  tail call void (ptr, i32, ptr, ...) @av_log(ptr noundef %0, i32 noundef 56, ptr noundef nonnull @.str.3, i32 noundef %.1.i.i) #8
  %30 = and i32 %5, -3
  %or.cond = icmp eq i32 %30, 105
  br i1 %or.cond, label %94, label %31

31:                                               ; preds = %29
  %32 = add i32 %.1.i.i, -1073741825
  %or.cond4 = icmp ult i32 %32, -1073741824
  br i1 %or.cond4, label %94, label %33

33:                                               ; preds = %31
  %34 = load ptr, ptr %11, align 8, !tbaa !13
  %35 = tail call i32 @ff_get_extradata(ptr noundef %0, ptr noundef %34, ptr noundef %2, i32 noundef %.1.i.i) #8
  %36 = icmp slt i32 %35, 0
  br i1 %36, label %94, label %37

37:                                               ; preds = %33
  %38 = load ptr, ptr %11, align 8, !tbaa !13
  %39 = getelementptr inbounds nuw i8, ptr %38, i64 4
  %40 = load i32, ptr %39, align 4, !tbaa !28
  %41 = icmp eq i32 %40, 86018
  br i1 %41, label %42, label %94

42:                                               ; preds = %37
  call void @llvm.lifetime.start.p0(i64 48, ptr nonnull %4) #8
  call void @llvm.memset.p0.i64(ptr noundef nonnull align 4 dereferenceable(48) %4, i8 0, i64 48, i1 false)
  %43 = getelementptr inbounds nuw i8, ptr %38, i64 16
  %44 = load ptr, ptr %43, align 8, !tbaa !29
  %45 = getelementptr inbounds nuw i8, ptr %38, i64 24
  %46 = load i32, ptr %45, align 8, !tbaa !30
  %47 = call i32 @avpriv_mpeg4audio_get_config2(ptr noundef nonnull %4, ptr noundef %44, i32 noundef %46, i32 noundef 1, ptr noundef %0) #8
  %48 = icmp sgt i32 %47, -1
  br i1 %48, label %49, label %.sink.split

49:                                               ; preds = %42
  %50 = getelementptr inbounds nuw i8, ptr %4, i64 36
  %51 = load i32, ptr %50, align 4, !tbaa !31
  %52 = load ptr, ptr %11, align 8, !tbaa !13
  %53 = getelementptr inbounds nuw i8, ptr %52, i64 132
  %54 = load i32, ptr %53, align 4, !tbaa !33
  %.not55 = icmp eq i32 %51, %54
  br i1 %.not55, label %61, label %55

55:                                               ; preds = %49
  %56 = getelementptr inbounds nuw i8, ptr %52, i64 128
  call void @av_channel_layout_uninit(ptr noundef nonnull %56) #8
  %57 = load ptr, ptr %11, align 8, !tbaa !13
  %58 = getelementptr inbounds nuw i8, ptr %57, i64 128
  store i32 0, ptr %58, align 8, !tbaa !34
  %59 = load i32, ptr %50, align 4, !tbaa !31
  %60 = getelementptr inbounds nuw i8, ptr %57, i64 132
  store i32 %59, ptr %60, align 4, !tbaa !33
  br label %61

61:                                               ; preds = %55, %49
  %62 = phi i32 [ %59, %55 ], [ %51, %49 ]
  %63 = phi ptr [ %57, %55 ], [ %52, %49 ]
  %64 = load i32, ptr %4, align 4, !tbaa !35
  %65 = icmp eq i32 %64, 29
  %66 = getelementptr inbounds nuw i8, ptr %4, i64 4
  %67 = load i32, ptr %66, align 4
  %68 = icmp slt i32 %67, 3
  %or.cond7 = select i1 %65, i1 %68, i1 false
  br i1 %or.cond7, label %69, label %75

69:                                               ; preds = %61
  %70 = sext i32 %67 to i64
  %71 = getelementptr inbounds [3 x i16], ptr @ff_mpa_freq_tab, i64 0, i64 %70
  %72 = load i16, ptr %71, align 2, !tbaa !36
  %73 = zext i16 %72 to i32
  %74 = getelementptr inbounds nuw i8, ptr %63, i64 152
  store i32 %73, ptr %74, align 8, !tbaa !38
  %.phi.trans.insert = getelementptr inbounds nuw i8, ptr %4, i64 28
  %.pre = load i32, ptr %.phi.trans.insert, align 4, !tbaa !39
  br label %84

75:                                               ; preds = %61
  %76 = getelementptr inbounds nuw i8, ptr %4, i64 28
  %77 = load i32, ptr %76, align 4, !tbaa !39
  %.not56 = icmp eq i32 %77, 0
  br i1 %.not56, label %80, label %78

78:                                               ; preds = %75
  %79 = getelementptr inbounds nuw i8, ptr %63, i64 152
  store i32 %77, ptr %79, align 8, !tbaa !38
  br label %84

80:                                               ; preds = %75
  %81 = getelementptr inbounds nuw i8, ptr %4, i64 8
  %82 = load i32, ptr %81, align 4, !tbaa !40
  %83 = getelementptr inbounds nuw i8, ptr %63, i64 152
  store i32 %82, ptr %83, align 8, !tbaa !38
  br label %84

84:                                               ; preds = %78, %80, %69
  %85 = phi i32 [ %77, %78 ], [ 0, %80 ], [ %.pre, %69 ]
  %86 = getelementptr inbounds nuw i8, ptr %4, i64 20
  %87 = load i32, ptr %86, align 4, !tbaa !41
  %88 = getelementptr inbounds nuw i8, ptr %4, i64 8
  %89 = load i32, ptr %88, align 4, !tbaa !40
  call void (ptr, i32, ptr, ...) @av_log(ptr noundef %0, i32 noundef 56, ptr noundef nonnull @.str.4, i32 noundef %62, i32 noundef %64, i32 noundef %87, i32 noundef %89, i32 noundef %85) #8
  %90 = load i32, ptr %4, align 4, !tbaa !35
  %91 = call i32 @ff_codec_get_id(ptr noundef nonnull @mp4_audio_types, i32 noundef %90) #8
  %92 = load ptr, ptr %11, align 8, !tbaa !13
  %93 = getelementptr inbounds nuw i8, ptr %92, i64 4
  %.not57 = icmp eq i32 %91, 0
  %spec.store.select = select i1 %.not57, i32 86018, i32 %91
  store i32 %spec.store.select, ptr %93, align 4
  br label %.sink.split

.sink.split:                                      ; preds = %42, %84
  %.049.ph = phi i32 [ 0, %84 ], [ %47, %42 ]
  call void @llvm.lifetime.end.p0(i64 48, ptr nonnull %4) #8
  br label %94

94:                                               ; preds = %.sink.split, %ff_mp4_read_descr.exit, %37, %33, %31, %29
  %.049 = phi i32 [ 0, %29 ], [ -1094995529, %31 ], [ %35, %33 ], [ 0, %37 ], [ 0, %ff_mp4_read_descr.exit ], [ %.049.ph, %.sink.split ]
  ret i32 %.049
}